target datalayout = "e-m:e-p270:32:32-p271:32:32-p272:64:64-i64:64-i128:128-f80:128-n8:16:32:64-S128"
target triple = "x86_64-pc-linux-gnu"

@pfcp_stat_msg_idx_hash = internal global ptr null, align 8
@.str.2798 = private unnamed_addr constant [14 x i8] c"PFCP Requests\00", align 1

; Function Attrs: null_pointer_is_valid sspstrong uwtable
define internal void @pfcp_stat_init(ptr noundef %0, ptr noundef %1) #0 {
  %3 = alloca ptr, align 8
  %4 = alloca ptr, align 8
  store ptr %0, ptr %3, align 8
  store ptr %1, ptr %4, align 8
  %5 = load ptr, ptr @pfcp_stat_msg_idx_hash, align 8
  %6 = icmp ne ptr %5, null
  br i1 %6, label %7, label %9

7:                                                ; preds = %2
  %8 = load ptr, ptr @pfcp_stat_msg_idx_hash, align 8
  call void @g_hash_table_destroy(ptr noundef %8)
  br label %9

9:                                                ; preds = %7, %2
  %10 = call ptr @g_hash_table_new(ptr noundef @g_direct_hash, ptr noundef @g_direct_equal)
  store ptr %10, ptr @pfcp_stat_msg_idx_hash, align 8
  %11 = load ptr, ptr %4, align 8
  %12 = call ptr @init_srt_table(ptr noundef @.str.2798, ptr noundef null, ptr noundef %11, i32 noundef 0, ptr noundef null, ptr noundef null, ptr noundef null)
  ret void
}