; Function Attrs: null_pointer_is_valid sspstrong uwtable
define internal void @pfcp_stat_init(ptr readnone captures(none) %0, ptr noundef %1) #0 {
  %3 = load ptr, ptr @pfcp_stat_msg_idx_hash, align 8
  %.not = icmp eq ptr %3, null
  br i1 %.not, label %5, label %4

4:                                                ; preds = %2
  tail call void @g_hash_table_destroy(ptr noundef nonnull %3)
  br label %5

5:                                                ; preds = %4, %2
  %6 = tail call ptr @g_hash_table_new(ptr noundef nonnull @g_direct_hash, ptr noundef nonnull @g_direct_equal)
  store ptr %6, ptr @pfcp_stat_msg_idx_hash, align 8
  %7 = tail call ptr @init_srt_table(ptr noundef nonnull @.str.2798, ptr noundef null, ptr noundef %1, i32 noundef 0, ptr noundef null, ptr noundef null, ptr noundef null)
  ret void
}